target datalayout = "e-m:e-p270:32:32-p271:32:32-p272:64:64-i64:64-i128:128-f80:128-n8:16:32:64-S128"
target triple = "x86_64-unknown-linux-gnu"

%struct.QTailQLink = type { ptr, ptr }
%struct.BlockDriverState = type { i32, i8, i8, i8, i8, i8, ptr, ptr, ptr, %struct.anon.0, i8, [4096 x i8], [4096 x i8], [4096 x i8], [16 x i8], ptr, [4096 x i8], %struct.BlockLimits, i32, i32, i32, i32, [32 x i8], %union.anon, %union.anon.1, %union.anon.2, i32, [16 x %struct.anon.3], ptr, %struct.anon.4, ptr, ptr, %struct.anon.5, ptr, ptr, i32, ptr, i64, i64, %struct.QemuMutex, %struct.anon.6, %struct.Stat64, i32, i32, i32, i32, i32, i32, %struct.QemuMutex, %struct.anon.7, %struct.CoQueue, i8, i32, i8, %struct.CoMutex, ptr, ptr }
%struct.anon.0 = type { ptr }
%struct.BlockLimits = type { i32, i64, i32, i64, i32, i32, i32, i64, i32, i64, i64, i32, i8, i32, i32, i32, i32, i32, i32, i32 }
%union.anon = type { %struct.QTailQLink }
%union.anon.1 = type { %struct.QTailQLink }
%union.anon.2 = type { %struct.QTailQLink }
%struct.anon.3 = type { ptr }
%struct.anon.4 = type { ptr }
%struct.anon.5 = type { ptr }
%struct.anon.6 = type { ptr }
%struct.Stat64 = type { i64 }
%struct.QemuMutex = type { %union.pthread_mutex_t, i8 }
%union.pthread_mutex_t = type { %struct.__pthread_mutex_s }
%struct.__pthread_mutex_s = type { i32, i32, i32, i32, i32, i16, i16, %struct.__pthread_internal_list }
%struct.__pthread_internal_list = type { ptr, ptr }
%struct.anon.7 = type { ptr }
%struct.CoQueue = type { %struct.anon.8 }
%struct.anon.8 = type { ptr, ptr }
%struct.CoMutex = type { i32, ptr, %struct.anon.9, %struct.anon.9, i32, i32, ptr }
%struct.anon.9 = type { ptr }
%struct.BDRVReplicationState = type { i32, i32, ptr, ptr, ptr, ptr, ptr, ptr, ptr, i8, i8, i32 }
%struct.BlockJob = type { %struct.Job, i32, i64, %struct.RateLimit, ptr, %struct.Notifier, %struct.Notifier, %struct.Notifier, %struct.Notifier, %struct.Notifier, ptr }
%struct.Job = type { ptr, ptr, ptr, i8, i8, ptr, ptr, %struct.ProgressMeter, ptr, i32, i32, %struct.QEMUTimer, i32, i8, i8, i8, i8, i8, i8, i32, ptr, %struct.NotifierList, %struct.NotifierList, %struct.NotifierList, %struct.NotifierList, %struct.NotifierList, %struct.anon.15, ptr, %struct.anon.16 }
%struct.ProgressMeter = type { i64, i64, %struct.QemuMutex }
%struct.QEMUTimer = type { i64, ptr, ptr, ptr, ptr, i32, i32 }
%struct.NotifierList = type { %struct.anon.14 }
%struct.anon.14 = type { ptr }
%struct.anon.15 = type { ptr, ptr }
%struct.anon.16 = type { ptr, ptr }
%struct.RateLimit = type { %struct.QemuMutex, i64, i64, i64, i64, i64 }
%struct.Notifier = type { ptr, %struct.anon.17 }
%struct.anon.17 = type { ptr, ptr }
%struct.BdrvChild = type { ptr, ptr, ptr, i32, ptr, i64, i64, i8, i8, %struct.anon.12, %struct.anon.13 }
%struct.anon.12 = type { ptr, ptr }
%struct.anon.13 = type { ptr, ptr }
%struct.ReplicationState = type { ptr, ptr, %struct.anon.11 }
%struct.anon.11 = type { ptr, ptr }

@.str.4 = private unnamed_addr constant [28 x i8] c"../qemu/block/replication.c\00", align 1
@__func__.replication_stop = private unnamed_addr constant [17 x i8] c"replication_stop\00", align 1
@.str.29 = private unnamed_addr constant [33 x i8] c"Block replication is not running\00", align 1

; Function Attrs: nounwind sspstrong uwtable
define internal void @replication_stop(ptr noundef %rs, i1 noundef zeroext %failover, ptr noundef %errp) #0 {
entry:
  %rs.addr = alloca ptr, align 8
  %failover.addr = alloca i8, align 1
  %errp.addr = alloca ptr, align 8
  %bs = alloca ptr, align 8
  %s = alloca ptr, align 8
  %aio_context = alloca ptr, align 8
  store ptr %rs, ptr %rs.addr, align 8
  %frombool = zext i1 %failover to i8
  store i8 %frombool, ptr %failover.addr, align 1
  store ptr %errp, ptr %errp.addr, align 8
  %0 = load ptr, ptr %rs.addr, align 8
  %opaque = getelementptr inbounds %struct.ReplicationState, ptr %0, i32 0, i32 0
  %1 = load ptr, ptr %opaque, align 8
  store ptr %1, ptr %bs, align 8
  %2 = load ptr, ptr %bs, align 8
  %call = call ptr @bdrv_get_aio_context(ptr noundef %2)
  store ptr %call, ptr %aio_context, align 8
  %3 = load ptr, ptr %aio_context, align 8
  call void @aio_context_acquire(ptr noundef %3)
  %4 = load ptr, ptr %bs, align 8
  %opaque1 = getelementptr inbounds %struct.BlockDriverState, ptr %4, i32 0, i32 7
  %5 = load ptr, ptr %opaque1, align 8
  store ptr %5, ptr %s, align 8
  %6 = load ptr, ptr %s, align 8
  %stage = getelementptr inbounds %struct.BDRVReplicationState, ptr %6, i32 0, i32 1
  %7 = load i32, ptr %stage, align 4
  %cmp = icmp eq i32 %7, 4
  br i1 %cmp, label %if.then, label %lor.lhs.false

lor.lhs.false:                                    ; preds = %entry
  %8 = load ptr, ptr %s, align 8
  %stage2 = getelementptr inbounds %struct.BDRVReplicationState, ptr %8, i32 0, i32 1
  %9 = load i32, ptr %stage2, align 4
  %cmp3 = icmp eq i32 %9, 2
  br i1 %cmp3, label %if.then, label %if.end

if.then:                                          ; preds = %lor.lhs.false, %entry
  %10 = load ptr, ptr %aio_context, align 8
  call void @aio_context_release(ptr noundef %10)
  br label %return

if.end:                                           ; preds = %lor.lhs.false
  %11 = load ptr, ptr %s, align 8
  %stage4 = getelementptr inbounds %struct.BDRVReplicationState, ptr %11, i32 0, i32 1
  %12 = load i32, ptr %stage4, align 4
  %cmp5 = icmp ne i32 %12, 1
  br i1 %cmp5, label %if.then6, label %if.end7

if.then6:                                         ; preds = %if.end
  %13 = load ptr, ptr %errp.addr, align 8
  call void (ptr, ptr, i32, ptr, ptr, ...) @error_setg_internal(ptr noundef %13, ptr noundef @.str.4, i32 noundef 730, ptr noundef @__func__.replication_stop, ptr noundef @.str.29)
  %14 = load ptr, ptr %aio_context, align 8
  call void @aio_context_release(ptr noundef %14)
  br label %return

if.end7:                                          ; preds = %if.end
  %15 = load ptr, ptr %s, align 8
  %mode = getelementptr inbounds %struct.BDRVReplicationState, ptr %15, i32 0, i32 0
  %16 = load i32, ptr %mode, align 8
  switch i32 %16, label %sw.default [
    i32 0, label %sw.bb
    i32 1, label %sw.bb9
  ]

sw.bb:                                            ; preds = %if.end7
  %17 = load ptr, ptr %s, align 8
  %stage8 = getelementptr inbounds %struct.BDRVReplicationState, ptr %17, i32 0, i32 1
  store i32 4, ptr %stage8, align 4
  %18 = load ptr, ptr %s, align 8
  %error = getelementptr inbounds %struct.BDRVReplicationState, ptr %18, i32 0, i32 11
  store i32 0, ptr %error, align 4
  br label %sw.epilog

sw.bb9:                                           ; preds = %if.end7
  %19 = load ptr, ptr %s, align 8
  %backup_job = getelementptr inbounds %struct.BDRVReplicationState, ptr %19, i32 0, i32 5
  %20 = load ptr, ptr %backup_job, align 8
  %tobool = icmp ne ptr %20, null
  br i1 %tobool, label %if.then10, label %if.end13

if.then10:                                        ; preds = %sw.bb9
  %21 = load ptr, ptr %aio_context, align 8
  call void @aio_context_release(ptr noundef %21)
  %22 = load ptr, ptr %s, align 8
  %backup_job11 = getelementptr inbounds %struct.BDRVReplicationState, ptr %22, i32 0, i32 5
  %23 = load ptr, ptr %backup_job11, align 8
  %job = getelementptr inbounds %struct.BlockJob, ptr %23, i32 0, i32 0
  %call12 = call i32 @job_cancel_sync(ptr noundef %job, i1 noundef zeroext true)
  %24 = load ptr, ptr %aio_context, align 8
  call void @aio_context_acquire(ptr noundef %24)
  br label %if.end13

if.end13:                                         ; preds = %if.then10, %sw.bb9
  %25 = load i8, ptr %failover.addr, align 1
  %tobool14 = trunc i8 %25 to i1
  br i1 %tobool14, label %if.end17, label %if.then15

if.then15:                                        ; preds = %if.end13
  %26 = load ptr, ptr %bs, align 8
  %27 = load ptr, ptr %errp.addr, align 8
  call void @secondary_do_checkpoint(ptr noundef %26, ptr noundef %27)
  %28 = load ptr, ptr %s, align 8
  %stage16 = getelementptr inbounds %struct.BDRVReplicationState, ptr %28, i32 0, i32 1
  store i32 4, ptr %stage16, align 4
  %29 = load ptr, ptr %aio_context, align 8
  call void @aio_context_release(ptr noundef %29)
  br label %return

if.end17:                                         ; preds = %if.end13
  call void @bdrv_graph_rdlock_main_loop()
  %30 = load ptr, ptr %s, align 8
  %stage18 = getelementptr inbounds %struct.BDRVReplicationState, ptr %30, i32 0, i32 1
  store i32 2, ptr %stage18, align 4
  %31 = load ptr, ptr %bs, align 8
  %file = getelementptr inbounds %struct.BlockDriverState, ptr %31, i32 0, i32 31
  %32 = load ptr, ptr %file, align 8
  %bs19 = getelementptr inbounds %struct.BdrvChild, ptr %32, i32 0, i32 0
  %33 = load ptr, ptr %bs19, align 8
  %34 = load ptr, ptr %s, align 8
  %secondary_disk = getelementptr inbounds %struct.BDRVReplicationState, ptr %34, i32 0, i32 4
  %35 = load ptr, ptr %secondary_disk, align 8
  %bs20 = getelementptr inbounds %struct.BdrvChild, ptr %35, i32 0, i32 0
  %36 = load ptr, ptr %bs20, align 8
  %37 = load ptr, ptr %bs, align 8
  %38 = load ptr, ptr %errp.addr, align 8
  %call21 = call ptr @commit_active_start(ptr noundef null, ptr noundef %33, ptr noundef %36, i32 noundef 1, i64 noundef 0, i32 noundef 0, ptr noundef null, ptr noundef @replication_done, ptr noundef %37, i1 noundef zeroext true, ptr noundef %38)
  %39 = load ptr, ptr %s, align 8
  %commit_job = getelementptr inbounds %struct.BDRVReplicationState, ptr %39, i32 0, i32 2
  store ptr %call21, ptr %commit_job, align 8
  call void @bdrv_graph_rdunlock_main_loop()
  br label %sw.epilog

sw.default:                                       ; preds = %if.end7
  %40 = load ptr, ptr %aio_context, align 8
  call void @aio_context_release(ptr noundef %40)
  call void @abort() #6
  unreachable

sw.epilog:                                        ; preds = %if.end17, %sw.bb
  %41 = load ptr, ptr %aio_context, align 8
  call void @aio_context_release(ptr noundef %41)
  br label %return

return:                                           ; preds = %sw.epilog, %if.then15, %if.then6, %if.then
  ret void
}