; Function Attrs: nounwind sspstrong uwtable
define internal void @replication_stop(ptr noundef readonly captures(none) %rs, i1 noundef zeroext %failover, ptr noundef %errp) #0 {
entry:
  %0 = load ptr, ptr %rs, align 8
  %call = tail call ptr @bdrv_get_aio_context(ptr noundef %0) #8
  tail call void @aio_context_acquire(ptr noundef %call) #8
  %opaque1 = getelementptr inbounds nuw i8, ptr %0, i64 24
  %1 = load ptr, ptr %opaque1, align 8
  %stage = getelementptr inbounds nuw i8, ptr %1, i64 4
  %2 = load i32, ptr %stage, align 4
  switch i32 %2, label %if.then6 [
    i32 4, label %return
    i32 2, label %return
    i32 1, label %if.end7
  ]

if.then6:                                         ; preds = %entry
  tail call void (ptr, ptr, i32, ptr, ptr, ...) @error_setg_internal(ptr noundef %errp, ptr noundef nonnull @.str.4, i32 noundef 730, ptr noundef nonnull @__func__.replication_stop, ptr noundef nonnull @.str.29) #8
  br label %return

if.end7:                                          ; preds = %entry
  %3 = load i32, ptr %1, align 8
  switch i32 %3, label %sw.default [
    i32 0, label %sw.bb
    i32 1, label %sw.bb9
  ]

sw.bb:                                            ; preds = %if.end7
  store i32 4, ptr %stage, align 4
  %error = getelementptr inbounds nuw i8, ptr %1, i64 68
  store i32 0, ptr %error, align 4
  br label %return

sw.bb9:                                           ; preds = %if.end7
  %backup_job = getelementptr inbounds nuw i8, ptr %1, i64 32
  %4 = load ptr, ptr %backup_job, align 8
  %tobool.not = icmp eq ptr %4, null
  br i1 %tobool.not, label %if.end13, label %if.then10

if.then10:                                        ; preds = %sw.bb9
  tail call void @aio_context_release(ptr noundef %call) #8
  %5 = load ptr, ptr %backup_job, align 8
  %call12 = tail call i32 @job_cancel_sync(ptr noundef %5, i1 noundef zeroext true) #8
  tail call void @aio_context_acquire(ptr noundef %call) #8
  br label %if.end13

if.end13:                                         ; preds = %if.then10, %sw.bb9
  br i1 %failover, label %if.end17, label %if.then15

if.then15:                                        ; preds = %if.end13
  tail call fastcc void @secondary_do_checkpoint(ptr noundef nonnull %0, ptr noundef %errp)
  store i32 4, ptr %stage, align 4
  br label %return

if.end17:                                         ; preds = %if.end13
  tail call void @bdrv_graph_rdlock_main_loop() #8
  store i32 2, ptr %stage, align 4
  %file = getelementptr inbounds nuw i8, ptr %0, i64 16840
  %6 = load ptr, ptr %file, align 8
  %7 = load ptr, ptr %6, align 8
  %secondary_disk = getelementptr inbounds nuw i8, ptr %1, i64 24
  %8 = load ptr, ptr %secondary_disk, align 8
  %9 = load ptr, ptr %8, align 8
  %call21 = tail call ptr @commit_active_start(ptr noundef null, ptr noundef %7, ptr noundef %9, i32 noundef 1, i64 noundef 0, i32 noundef 0, ptr noundef null, ptr noundef nonnull @replication_done, ptr noundef nonnull %0, i1 noundef zeroext true, ptr noundef %errp) #8
  %commit_job = getelementptr inbounds nuw i8, ptr %1, i64 8
  store ptr %call21, ptr %commit_job, align 8
  tail call void @bdrv_graph_rdunlock_main_loop() #8
  br label %return

sw.default:                                       ; preds = %if.end7
  tail call void @aio_context_release(ptr noundef %call) #8
  tail call void @abort() #10
  unreachable

return:                                           ; preds = %sw.bb, %if.end17, %entry, %entry, %if.then15, %if.then6
  tail call void @aio_context_release(ptr noundef %call) #8
  ret void
}